; ModuleID = '22/62.c'
source_filename = "22/62.c"
target datalayout = "e-m:e-p270:32:32-p271:32:32-p272:64:64-i64:64-f80:128-n8:16:32:64-S128"
target triple = "x86_64-pc-linux-gnu"

@.str = private unnamed_addr constant [3 x i8] c"%s\00", align 1
@.str.1 = private unnamed_addr constant [4 x i8] c"No\0A\00", align 1
@.str.2 = private unnamed_addr constant [4 x i8] c"%d\0A\00", align 1

; Function Attrs: noinline nounwind uwtable
define dso_local void @main() #0 {
  %1 = alloca i32, align 4
  %2 = alloca i32, align 4
  %3 = alloca i32, align 4
  %4 = alloca i32, align 4
  %5 = alloca i32, align 4
  %6 = alloca i32, align 4
  %7 = alloca i32, align 4
  %8 = alloca i32, align 4
  %9 = alloca [1600 x i8], align 16
  %10 = alloca [1201 x i32], align 16
  %11 = alloca [1201 x i32], align 16
  %12 = getelementptr inbounds [1600 x i8], [1600 x i8]* %9, i64 0, i64 0
  %13 = call i32 (i8*, ...) @__isoc99_scanf(i8* getelementptr inbounds ([3 x i8], [3 x i8]* @.str, i64 0, i64 0), i8* %12)
  %14 = getelementptr inbounds [1600 x i8], [1600 x i8]* %9, i64 0, i64 0
  %15 = call i64 @strlen(i8* %14) #3
  %16 = trunc i64 %15 to i32
  store i32 %16, i32* %8, align 4
  store i32 0, i32* %1, align 4
  store i32 0, i32* %2, align 4
  store i32 0, i32* %5, align 4
  store i32 0, i32* %7, align 4
  store i32 0, i32* %4, align 4
  br label %17

17:                                               ; preds = %69, %0
  %18 = load i32, i32* %4, align 4
  %19 = load i32, i32* %8, align 4
  %20 = icmp slt i32 %18, %19
  br i1 %20, label %21, label %72

21:                                               ; preds = %17
  %22 = load i32, i32* %4, align 4
  %23 = sext i32 %22 to i64
  %24 = getelementptr inbounds [1600 x i8], [1600 x i8]* %9, i64 0, i64 %23
  %25 = load i8, i8* %24, align 1
  %26 = sext i8 %25 to i32
  %27 = icmp sge i32 %26, 48
  br i1 %27, label %28, label %45

28:                                               ; preds = %21
  %29 = load i32, i32* %4, align 4
  %30 = sext i32 %29 to i64
  %31 = getelementptr inbounds [1600 x i8], [1600 x i8]* %9, i64 0, i64 %30
  %32 = load i8, i8* %31, align 1
  %33 = sext i8 %32 to i32
  %34 = icmp sle i32 %33, 57
  br i1 %34, label %35, label %45

35:                                               ; preds = %28
  %36 = load i32, i32* %5, align 4
  %37 = mul nsw i32 %36, 10
  %38 = load i32, i32* %4, align 4
  %39 = sext i32 %38 to i64
  %40 = getelementptr inbounds [1600 x i8], [1600 x i8]* %9, i64 0, i64 %39
  %41 = load i8, i8* %40, align 1
  %42 = sext i8 %41 to i32
  %43 = add nsw i32 %37, %42
  %44 = sub nsw i32 %43, 48
  store i32 %44, i32* %5, align 4
  store i32 1, i32* %7, align 4
  br label %56

45:                                               ; preds = %28, %21
  %46 = load i32, i32* %7, align 4
  %47 = icmp eq i32 %46, 1
  br i1 %47, label %48, label %55

48:                                               ; preds = %45
  %49 = load i32, i32* %5, align 4
  %50 = load i32, i32* %1, align 4
  %51 = sext i32 %50 to i64
  %52 = getelementptr inbounds [1201 x i32], [1201 x i32]* %10, i64 0, i64 %51
  store i32 %49, i32* %52, align 4
  store i32 0, i32* %5, align 4
  %53 = load i32, i32* %1, align 4
  %54 = add nsw i32 %53, 1
  store i32 %54, i32* %1, align 4
  store i32 0, i32* %7, align 4
  br label %55

55:                                               ; preds = %48, %45
  br label %56

56:                                               ; preds = %55, %35
  %57 = load i32, i32* %4, align 4
  %58 = load i32, i32* %8, align 4
  %59 = sub nsw i32 %58, 1
  %60 = icmp eq i32 %57, %59
  br i1 %60, label %61, label %68

61:                                               ; preds = %56
  %62 = load i32, i32* %5, align 4
  %63 = load i32, i32* %1, align 4
  %64 = sext i32 %63 to i64
  %65 = getelementptr inbounds [1201 x i32], [1201 x i32]* %10, i64 0, i64 %64
  store i32 %62, i32* %65, align 4
  store i32 0, i32* %5, align 4
  %66 = load i32, i32* %1, align 4
  %67 = add nsw i32 %66, 1
  store i32 %67, i32* %1, align 4
  store i32 0, i32* %7, align 4
  br label %68

68:                                               ; preds = %61, %56
  br label %69

69:                                               ; preds = %68
  %70 = load i32, i32* %4, align 4
  %71 = add nsw i32 %70, 1
  store i32 %71, i32* %4, align 4
  br label %17

72:                                               ; preds = %17
  store i32 0, i32* %6, align 4
  store i32 0, i32* %4, align 4
  br label %73

73:                                               ; preds = %120, %72
  %74 = load i32, i32* %4, align 4
  %75 = load i32, i32* %1, align 4
  %76 = sub nsw i32 %75, 1
  %77 = icmp slt i32 %74, %76
  br i1 %77, label %78, label %123

78:                                               ; preds = %73
  store i32 0, i32* %3, align 4
  br label %79

79:                                               ; preds = %116, %78
  %80 = load i32, i32* %3, align 4
  %81 = load i32, i32* %1, align 4
  %82 = sub nsw i32 %81, 1
  %83 = load i32, i32* %4, align 4
  %84 = sub nsw i32 %82, %83
  %85 = icmp slt i32 %80, %84
  br i1 %85, label %86, label %119

86:                                               ; preds = %79
  %87 = load i32, i32* %3, align 4
  %88 = sext i32 %87 to i64
  %89 = getelementptr inbounds [1201 x i32], [1201 x i32]* %10, i64 0, i64 %88
  %90 = load i32, i32* %89, align 4
  %91 = load i32, i32* %3, align 4
  %92 = add nsw i32 %91, 1
  %93 = sext i32 %92 to i64
  %94 = getelementptr inbounds [1201 x i32], [1201 x i32]* %10, i64 0, i64 %93
  %95 = load i32, i32* %94, align 4
  %96 = icmp slt i32 %90, %95
  br i1 %96, label %97, label %115

97:                                               ; preds = %86
  %98 = load i32, i32* %3, align 4
  %99 = sext i32 %98 to i64
  %100 = getelementptr inbounds [1201 x i32], [1201 x i32]* %10, i64 0, i64 %99
  %101 = load i32, i32* %100, align 4
  store i32 %101, i32* %2, align 4
  %102 = load i32, i32* %3, align 4
  %103 = add nsw i32 %102, 1
  %104 = sext i32 %103 to i64
  %105 = getelementptr inbounds [1201 x i32], [1201 x i32]* %10, i64 0, i64 %104
  %106 = load i32, i32* %105, align 4
  %107 = load i32, i32* %3, align 4
  %108 = sext i32 %107 to i64
  %109 = getelementptr inbounds [1201 x i32], [1201 x i32]* %10, i64 0, i64 %108
  store i32 %106, i32* %109, align 4
  %110 = load i32, i32* %2, align 4
  %111 = load i32, i32* %3, align 4
  %112 = add nsw i32 %111, 1
  %113 = sext i32 %112 to i64
  %114 = getelementptr inbounds [1201 x i32], [1201 x i32]* %10, i64 0, i64 %113
  store i32 %110, i32* %114, align 4
  br label %115

115:                                              ; preds = %97, %86
  br label %116

116:                                              ; preds = %115
  %117 = load i32, i32* %3, align 4
  %118 = add nsw i32 %117, 1
  store i32 %118, i32* %3, align 4
  br label %79

119:                                              ; preds = %79
  br label %120

120:                                              ; preds = %119
  %121 = load i32, i32* %4, align 4
  %122 = add nsw i32 %121, 1
  store i32 %122, i32* %4, align 4
  br label %73

123:                                              ; preds = %73
  %124 = load i32, i32* %1, align 4
  %125 = icmp eq i32 %124, 1
  br i1 %125, label %126, label %128

126:                                              ; preds = %123
  %127 = call i32 (i8*, ...) @printf(i8* getelementptr inbounds ([4 x i8], [4 x i8]* @.str.1, i64 0, i64 0))
  br label %164

128:                                              ; preds = %123
  store i32 0, i32* %4, align 4
  br label %129

129:                                              ; preds = %160, %128
  %130 = load i32, i32* %4, align 4
  %131 = load i32, i32* %1, align 4
  %132 = sub nsw i32 %131, 1
  %133 = icmp slt i32 %130, %132
  br i1 %133, label %134, label %163

134:                                              ; preds = %129
  %135 = load i32, i32* %4, align 4
  %136 = sext i32 %135 to i64
  %137 = getelementptr inbounds [1201 x i32], [1201 x i32]* %10, i64 0, i64 %136
  %138 = load i32, i32* %137, align 4
  %139 = load i32, i32* %4, align 4
  %140 = add nsw i32 %139, 1
  %141 = sext i32 %140 to i64
  %142 = getelementptr inbounds [1201 x i32], [1201 x i32]* %10, i64 0, i64 %141
  %143 = load i32, i32* %142, align 4
  %144 = icmp ne i32 %138, %143
  br i1 %144, label %145, label %152

145:                                              ; preds = %134
  %146 = load i32, i32* %4, align 4
  %147 = add nsw i32 %146, 1
  %148 = sext i32 %147 to i64
  %149 = getelementptr inbounds [1201 x i32], [1201 x i32]* %10, i64 0, i64 %148
  %150 = load i32, i32* %149, align 4
  %151 = call i32 (i8*, ...) @printf(i8* getelementptr inbounds ([4 x i8], [4 x i8]* @.str.2, i64 0, i64 0), i32 %150)
  br label %163

152:                                              ; preds = %134
  %153 = load i32, i32* %4, align 4
  %154 = load i32, i32* %1, align 4
  %155 = sub nsw i32 %154, 2
  %156 = icmp eq i32 %153, %155
  br i1 %156, label %157, label %159

157:                                              ; preds = %152
  %158 = call i32 (i8*, ...) @printf(i8* getelementptr inbounds ([4 x i8], [4 x i8]* @.str.1, i64 0, i64 0))
  br label %159

159:                                              ; preds = %157, %152
  br label %160

160:                                              ; preds = %159
  %161 = load i32, i32* %4, align 4
  %162 = add nsw i32 %161, 1
  store i32 %162, i32* %4, align 4
  br label %129

163:                                              ; preds = %145, %129
  br label %164

164:                                              ; preds = %163, %126
  ret void
}

declare dso_local i32 @__isoc99_scanf(i8*, ...) #1

; Function Attrs: nounwind readonly
declare dso_local i64 @strlen(i8*) #2

declare dso_local i32 @printf(i8*, ...) #1


!llvm.module.flags = !{!0}
!llvm.ident = !{!1}

!0 = !{i32 1, !"wchar_size", i32 4}
!1 = !{!"clang version 10.0.0-4ubuntu1 "}
